target datalayout = "e-m:e-p270:32:32-p271:32:32-p272:64:64-i64:64-i128:128-f80:128-n8:16:32:64-S128"
target triple = "x86_64-pc-linux-gnu"

; Function Attrs: nounwind uwtable
define dso_local i64 @MurmurHash64A(ptr noundef %0, i32 noundef %1, i32 noundef %2) #0 {
  %4 = alloca ptr, align 8
  %5 = alloca i32, align 4
  %6 = alloca i32, align 4
  %7 = alloca i64, align 8
  %8 = alloca i32, align 4
  %9 = alloca i64, align 8
  %10 = alloca ptr, align 8
  %11 = alloca ptr, align 8
  %12 = alloca i64, align 8
  store ptr %0, ptr %4, align 8, !tbaa !5
  store i32 %1, ptr %5, align 4, !tbaa !9
  store i32 %2, ptr %6, align 4, !tbaa !9
  call void @llvm.lifetime.start.p0(i64 8, ptr %7) #15
  store i64 -4132994306676758123, ptr %7, align 8, !tbaa !11
  call void @llvm.lifetime.start.p0(i64 4, ptr %8) #15
  store i32 47, ptr %8, align 4, !tbaa !9
  call void @llvm.lifetime.start.p0(i64 8, ptr %9) #15
  %13 = load i32, ptr %6, align 4, !tbaa !9
  %14 = zext i32 %13 to i64
  %15 = load i32, ptr %5, align 4, !tbaa !9
  %16 = sext i32 %15 to i64
  %17 = mul i64 %16, -4132994306676758123
  %18 = xor i64 %14, %17
  store i64 %18, ptr %9, align 8, !tbaa !11
  call void @llvm.lifetime.start.p0(i64 8, ptr %10) #15
  %19 = load ptr, ptr %4, align 8, !tbaa !5
  store ptr %19, ptr %10, align 8, !tbaa !13
  call void @llvm.lifetime.start.p0(i64 8, ptr %11) #15
  %20 = load ptr, ptr %10, align 8, !tbaa !13
  %21 = load i32, ptr %5, align 4, !tbaa !9
  %22 = load i32, ptr %5, align 4, !tbaa !9
  %23 = and i32 %22, 7
  %24 = sub nsw i32 %21, %23
  %25 = sext i32 %24 to i64
  %26 = getelementptr inbounds i8, ptr %20, i64 %25
  store ptr %26, ptr %11, align 8, !tbaa !13
  br label %27

27:                                               ; preds = %31, %3
  %28 = load ptr, ptr %10, align 8, !tbaa !13
  %29 = load ptr, ptr %11, align 8, !tbaa !13
  %30 = icmp ne ptr %28, %29
  br i1 %30, label %31, label %49

31:                                               ; preds = %27
  call void @llvm.lifetime.start.p0(i64 8, ptr %12) #15
  %32 = load ptr, ptr %10, align 8, !tbaa !13
  %33 = load i64, ptr %32, align 8, !tbaa !11
  store i64 %33, ptr %12, align 8, !tbaa !11
  %34 = load i64, ptr %12, align 8, !tbaa !11
  %35 = mul i64 %34, -4132994306676758123
  store i64 %35, ptr %12, align 8, !tbaa !11
  %36 = load i64, ptr %12, align 8, !tbaa !11
  %37 = lshr i64 %36, 47
  %38 = load i64, ptr %12, align 8, !tbaa !11
  %39 = xor i64 %38, %37
  store i64 %39, ptr %12, align 8, !tbaa !11
  %40 = load i64, ptr %12, align 8, !tbaa !11
  %41 = mul i64 %40, -4132994306676758123
  store i64 %41, ptr %12, align 8, !tbaa !11
  %42 = load i64, ptr %12, align 8, !tbaa !11
  %43 = load i64, ptr %9, align 8, !tbaa !11
  %44 = xor i64 %43, %42
  store i64 %44, ptr %9, align 8, !tbaa !11
  %45 = load i64, ptr %9, align 8, !tbaa !11
  %46 = mul i64 %45, -4132994306676758123
  store i64 %46, ptr %9, align 8, !tbaa !11
  %47 = load ptr, ptr %10, align 8, !tbaa !13
  %48 = getelementptr inbounds i8, ptr %47, i64 8
  store ptr %48, ptr %10, align 8, !tbaa !13
  call void @llvm.lifetime.end.p0(i64 8, ptr %12) #15
  br label %27, !llvm.loop !15

49:                                               ; preds = %27
  %50 = load i32, ptr %5, align 4, !tbaa !9
  %51 = and i32 %50, 7
  switch i32 %51, label %109 [
    i32 7, label %52
    i32 6, label %60
    i32 5, label %68
    i32 4, label %76
    i32 3, label %84
    i32 2, label %92
    i32 1, label %100
  ]

52:                                               ; preds = %49
  %53 = load ptr, ptr %10, align 8, !tbaa !13
  %54 = getelementptr inbounds i8, ptr %53, i64 6
  %55 = load i8, ptr %54, align 1, !tbaa !17
  %56 = zext i8 %55 to i64
  %57 = shl i64 %56, 48
  %58 = load i64, ptr %9, align 8, !tbaa !11
  %59 = xor i64 %58, %57
  store i64 %59, ptr %9, align 8, !tbaa !11
  br label %60

60:                                               ; preds = %49, %52
  %61 = load ptr, ptr %10, align 8, !tbaa !13
  %62 = getelementptr inbounds i8, ptr %61, i64 5
  %63 = load i8, ptr %62, align 1, !tbaa !17
  %64 = zext i8 %63 to i64
  %65 = shl i64 %64, 40
  %66 = load i64, ptr %9, align 8, !tbaa !11
  %67 = xor i64 %66, %65
  store i64 %67, ptr %9, align 8, !tbaa !11
  br label %68

68:                                               ; preds = %49, %60
  %69 = load ptr, ptr %10, align 8, !tbaa !13
  %70 = getelementptr inbounds i8, ptr %69, i64 4
  %71 = load i8, ptr %70, align 1, !tbaa !17
  %72 = zext i8 %71 to i64
  %73 = shl i64 %72, 32
  %74 = load i64, ptr %9, align 8, !tbaa !11
  %75 = xor i64 %74, %73
  store i64 %75, ptr %9, align 8, !tbaa !11
  br label %76

76:                                               ; preds = %49, %68
  %77 = load ptr, ptr %10, align 8, !tbaa !13
  %78 = getelementptr inbounds i8, ptr %77, i64 3
  %79 = load i8, ptr %78, align 1, !tbaa !17
  %80 = zext i8 %79 to i64
  %81 = shl i64 %80, 24
  %82 = load i64, ptr %9, align 8, !tbaa !11
  %83 = xor i64 %82, %81
  store i64 %83, ptr %9, align 8, !tbaa !11
  br label %84

84:                                               ; preds = %49, %76
  %85 = load ptr, ptr %10, align 8, !tbaa !13
  %86 = getelementptr inbounds i8, ptr %85, i64 2
  %87 = load i8, ptr %86, align 1, !tbaa !17
  %88 = zext i8 %87 to i64
  %89 = shl i64 %88, 16
  %90 = load i64, ptr %9, align 8, !tbaa !11
  %91 = xor i64 %90, %89
  store i64 %91, ptr %9, align 8, !tbaa !11
  br label %92

92:                                               ; preds = %49, %84
  %93 = load ptr, ptr %10, align 8, !tbaa !13
  %94 = getelementptr inbounds i8, ptr %93, i64 1
  %95 = load i8, ptr %94, align 1, !tbaa !17
  %96 = zext i8 %95 to i64
  %97 = shl i64 %96, 8
  %98 = load i64, ptr %9, align 8, !tbaa !11
  %99 = xor i64 %98, %97
  store i64 %99, ptr %9, align 8, !tbaa !11
  br label %100

100:                                              ; preds = %49, %92
  %101 = load ptr, ptr %10, align 8, !tbaa !13
  %102 = getelementptr inbounds i8, ptr %101, i64 0
  %103 = load i8, ptr %102, align 1, !tbaa !17
  %104 = zext i8 %103 to i64
  %105 = load i64, ptr %9, align 8, !tbaa !11
  %106 = xor i64 %105, %104
  store i64 %106, ptr %9, align 8, !tbaa !11
  %107 = load i64, ptr %9, align 8, !tbaa !11
  %108 = mul i64 %107, -4132994306676758123
  store i64 %108, ptr %9, align 8, !tbaa !11
  br label %109

109:                                              ; preds = %100, %49
  %110 = load i64, ptr %9, align 8, !tbaa !11
  %111 = lshr i64 %110, 47
  %112 = load i64, ptr %9, align 8, !tbaa !11
  %113 = xor i64 %112, %111
  store i64 %113, ptr %9, align 8, !tbaa !11
  %114 = load i64, ptr %9, align 8, !tbaa !11
  %115 = mul i64 %114, -4132994306676758123
  store i64 %115, ptr %9, align 8, !tbaa !11
  %116 = load i64, ptr %9, align 8, !tbaa !11
  %117 = lshr i64 %116, 47
  %118 = load i64, ptr %9, align 8, !tbaa !11
  %119 = xor i64 %118, %117
  store i64 %119, ptr %9, align 8, !tbaa !11
  %120 = load i64, ptr %9, align 8, !tbaa !11
  call void @llvm.lifetime.end.p0(i64 8, ptr %11) #15
  call void @llvm.lifetime.end.p0(i64 8, ptr %10) #15
  call void @llvm.lifetime.end.p0(i64 8, ptr %9) #15
  call void @llvm.lifetime.end.p0(i64 4, ptr %8) #15
  call void @llvm.lifetime.end.p0(i64 8, ptr %7) #15
  ret i64 %120
}

; Function Attrs: nounwind uwtable
define dso_local i32 @hllPatLen(ptr noundef %0, i64 noundef %1, ptr noundef %2) #0 {
  %4 = alloca ptr, align 8
  %5 = alloca i64, align 8
  %6 = alloca ptr, align 8
  %7 = alloca i64, align 8
  %8 = alloca i64, align 8
  %9 = alloca i32, align 4
  store ptr %0, ptr %4, align 8, !tbaa !13
  store i64 %1, ptr %5, align 8, !tbaa !11
  store ptr %2, ptr %6, align 8, !tbaa !18
  call void @llvm.lifetime.start.p0(i64 8, ptr %7) #15
  call void @llvm.lifetime.start.p0(i64 8, ptr %8) #15
  call void @llvm.lifetime.start.p0(i64 4, ptr %9) #15
  %10 = load ptr, ptr %4, align 8, !tbaa !13
  %11 = load i64, ptr %5, align 8, !tbaa !11
  %12 = trunc i64 %11 to i32
  %13 = call i64 @MurmurHash64A(ptr noundef %10, i32 noundef %12, i32 noundef -1379386599)
  store i64 %13, ptr %7, align 8, !tbaa !11
  %14 = load i64, ptr %7, align 8, !tbaa !11
  %15 = and i64 %14, 16383
  store i64 %15, ptr %8, align 8, !tbaa !11
  %16 = load i64, ptr %7, align 8, !tbaa !11
  %17 = lshr i64 %16, 14
  store i64 %17, ptr %7, align 8, !tbaa !11
  %18 = load i64, ptr %7, align 8, !tbaa !11
  %19 = or i64 %18, 1125899906842624
  store i64 %19, ptr %7, align 8, !tbaa !11
  %20 = load i64, ptr %7, align 8, !tbaa !11
  %21 = call i64 @llvm.cttz.i64(i64 %20, i1 true)
  %22 = trunc i64 %21 to i32
  %23 = add nsw i32 %22, 1
  store i32 %23, ptr %9, align 4, !tbaa !9
  %24 = load i64, ptr %8, align 8, !tbaa !11
  %25 = trunc i64 %24 to i32
  %26 = sext i32 %25 to i64
  %27 = load ptr, ptr %6, align 8, !tbaa !18
  store i64 %26, ptr %27, align 8, !tbaa !11
  %28 = load i32, ptr %9, align 4, !tbaa !9
  call void @llvm.lifetime.end.p0(i64 4, ptr %9) #15
  call void @llvm.lifetime.end.p0(i64 8, ptr %8) #15
  call void @llvm.lifetime.end.p0(i64 8, ptr %7) #15
  ret i32 %28
}